target datalayout = "e-m:e-p270:32:32-p271:32:32-p272:64:64-i64:64-f80:128-n8:16:32:64-S128"
target triple = "x86_64-pc-linux-gnu"

@.str = private unnamed_addr constant [3 x i8] c"%c\00", align 1
@.str.1 = private unnamed_addr constant [2 x i8] c"\0A\00", align 1

; Function Attrs: noinline nounwind uwtable
define dso_local i32 @main(i32 %0, i8** %1) #0 {
  %3 = alloca i32, align 4
  %4 = alloca i32, align 4
  %5 = alloca i8**, align 8
  %6 = alloca [500 x i8], align 16
  %7 = alloca i32, align 4
  %8 = alloca [500 x i32], align 16
  %9 = alloca i32, align 4
  %10 = alloca i32, align 4
  %11 = alloca i32, align 4
  %12 = alloca i32, align 4
  %13 = alloca [20 x i32], align 16
  %14 = alloca i32, align 4
  %15 = alloca i32, align 4
  %16 = alloca i32, align 4
  %17 = alloca i32, align 4
  store i32 0, i32* %3, align 4
  store i32 %0, i32* %4, align 4
  store i8** %1, i8*** %5, align 8
  %18 = bitcast [500 x i32]* %8 to i8*
  call void @llvm.memset.p0i8.i64(i8* align 16 %18, i8 0, i64 2000, i1 false)
  store i32 1, i32* %9, align 4
  %19 = getelementptr inbounds [500 x i32], [500 x i32]* %8, i64 0, i64 0
  store i32 -1, i32* %19, align 16
  %20 = getelementptr inbounds [500 x i8], [500 x i8]* %6, i64 0, i64 0
  %21 = call i32 (i8*, ...) bitcast (i32 (...)* @gets to i32 (i8*, ...)*)(i8* %20)
  %22 = getelementptr inbounds [500 x i8], [500 x i8]* %6, i64 0, i64 0
  %23 = call i64 @strlen(i8* %22) #4
  %24 = trunc i64 %23 to i32
  store i32 %24, i32* %11, align 4
  %25 = load i32, i32* %11, align 4
  %26 = sext i32 %25 to i64
  %27 = getelementptr inbounds [500 x i8], [500 x i8]* %6, i64 0, i64 %26
  store i8 32, i8* %27, align 1
  store i32 0, i32* %7, align 4
  br label %28

28:                                               ; preds = %48, %2
  %29 = load i32, i32* %7, align 4
  %30 = load i32, i32* %11, align 4
  %31 = icmp sle i32 %29, %30
  br i1 %31, label %32, label %51

32:                                               ; preds = %28
  %33 = load i32, i32* %7, align 4
  %34 = sext i32 %33 to i64
  %35 = getelementptr inbounds [500 x i8], [500 x i8]* %6, i64 0, i64 %34
  %36 = load i8, i8* %35, align 1
  %37 = sext i8 %36 to i32
  %38 = icmp eq i32 %37, 32
  br i1 %38, label %39, label %47

39:                                               ; preds = %32
  %40 = load i32, i32* %7, align 4
  %41 = load i32, i32* %9, align 4
  %42 = sext i32 %41 to i64
  %43 = getelementptr inbounds [500 x i32], [500 x i32]* %8, i64 0, i64 %42
  store i32 %40, i32* %43, align 4
  %44 = load i32, i32* %9, align 4
  %45 = add nsw i32 %44, 1
  store i32 %45, i32* %9, align 4
  %46 = load i32, i32* %9, align 4
  store i32 %46, i32* %10, align 4
  br label %47

47:                                               ; preds = %39, %32
  br label %48

48:                                               ; preds = %47
  %49 = load i32, i32* %7, align 4
  %50 = add nsw i32 %49, 1
  store i32 %50, i32* %7, align 4
  br label %28

51:                                               ; preds = %28
  store i32 1, i32* %12, align 4
  br label %52

52:                                               ; preds = %71, %51
  %53 = load i32, i32* %12, align 4
  %54 = load i32, i32* %10, align 4
  %55 = icmp slt i32 %53, %54
  br i1 %55, label %56, label %74

56:                                               ; preds = %52
  %57 = load i32, i32* %12, align 4
  %58 = sext i32 %57 to i64
  %59 = getelementptr inbounds [500 x i32], [500 x i32]* %8, i64 0, i64 %58
  %60 = load i32, i32* %59, align 4
  %61 = load i32, i32* %12, align 4
  %62 = sub nsw i32 %61, 1
  %63 = sext i32 %62 to i64
  %64 = getelementptr inbounds [500 x i32], [500 x i32]* %8, i64 0, i64 %63
  %65 = load i32, i32* %64, align 4
  %66 = sub nsw i32 %60, %65
  %67 = sub nsw i32 %66, 1
  %68 = load i32, i32* %12, align 4
  %69 = sext i32 %68 to i64
  %70 = getelementptr inbounds [20 x i32], [20 x i32]* %13, i64 0, i64 %69
  store i32 %67, i32* %70, align 4
  br label %71

71:                                               ; preds = %56
  %72 = load i32, i32* %12, align 4
  %73 = add nsw i32 %72, 1
  store i32 %73, i32* %12, align 4
  br label %52

74:                                               ; preds = %52
  store i32 0, i32* %14, align 4
  store i32 20, i32* %15, align 4
  store i32 1, i32* %12, align 4
  br label %75

75:                                               ; preds = %93, %74
  %76 = load i32, i32* %12, align 4
  %77 = load i32, i32* %10, align 4
  %78 = icmp slt i32 %76, %77
  br i1 %78, label %79, label %96

79:                                               ; preds = %75
  %80 = load i32, i32* %15, align 4
  %81 = load i32, i32* %12, align 4
  %82 = sext i32 %81 to i64
  %83 = getelementptr inbounds [20 x i32], [20 x i32]* %13, i64 0, i64 %82
  %84 = load i32, i32* %83, align 4
  %85 = icmp sgt i32 %80, %84
  br i1 %85, label %86, label %92

86:                                               ; preds = %79
  %87 = load i32, i32* %12, align 4
  %88 = sext i32 %87 to i64
  %89 = getelementptr inbounds [20 x i32], [20 x i32]* %13, i64 0, i64 %88
  %90 = load i32, i32* %89, align 4
  store i32 %90, i32* %15, align 4
  %91 = load i32, i32* %12, align 4
  store i32 %91, i32* %16, align 4
  br label %92

92:                                               ; preds = %86, %79
  br label %93

93:                                               ; preds = %92
  %94 = load i32, i32* %12, align 4
  %95 = add nsw i32 %94, 1
  store i32 %95, i32* %12, align 4
  br label %75

96:                                               ; preds = %75
  store i32 1, i32* %12, align 4
  br label %97

97:                                               ; preds = %115, %96
  %98 = load i32, i32* %12, align 4
  %99 = load i32, i32* %10, align 4
  %100 = icmp slt i32 %98, %99
  br i1 %100, label %101, label %118

101:                                              ; preds = %97
  %102 = load i32, i32* %14, align 4
  %103 = load i32, i32* %12, align 4
  %104 = sext i32 %103 to i64
  %105 = getelementptr inbounds [20 x i32], [20 x i32]* %13, i64 0, i64 %104
  %106 = load i32, i32* %105, align 4
  %107 = icmp slt i32 %102, %106
  br i1 %107, label %108, label %114

108:                                              ; preds = %101
  %109 = load i32, i32* %12, align 4
  %110 = sext i32 %109 to i64
  %111 = getelementptr inbounds [20 x i32], [20 x i32]* %13, i64 0, i64 %110
  %112 = load i32, i32* %111, align 4
  store i32 %112, i32* %14, align 4
  %113 = load i32, i32* %12, align 4
  store i32 %113, i32* %17, align 4
  br label %114

114:                                              ; preds = %108, %101
  br label %115

115:                                              ; preds = %114
  %116 = load i32, i32* %12, align 4
  %117 = add nsw i32 %116, 1
  store i32 %117, i32* %12, align 4
  br label %97

118:                                              ; preds = %97
  %119 = load i32, i32* %17, align 4
  %120 = sext i32 %119 to i64
  %121 = getelementptr inbounds [500 x i32], [500 x i32]* %8, i64 0, i64 %120
  %122 = load i32, i32* %121, align 4
  %123 = load i32, i32* %17, align 4
  %124 = sext i32 %123 to i64
  %125 = getelementptr inbounds [20 x i32], [20 x i32]* %13, i64 0, i64 %124
  %126 = load i32, i32* %125, align 4
  %127 = sub nsw i32 %122, %126
  store i32 %127, i32* %7, align 4
  br label %128

128:                                              ; preds = %142, %118
  %129 = load i32, i32* %7, align 4
  %130 = load i32, i32* %17, align 4
  %131 = sext i32 %130 to i64
  %132 = getelementptr inbounds [500 x i32], [500 x i32]* %8, i64 0, i64 %131
  %133 = load i32, i32* %132, align 4
  %134 = icmp slt i32 %129, %133
  br i1 %134, label %135, label %145

135:                                              ; preds = %128
  %136 = load i32, i32* %7, align 4
  %137 = sext i32 %136 to i64
  %138 = getelementptr inbounds [500 x i8], [500 x i8]* %6, i64 0, i64 %137
  %139 = load i8, i8* %138, align 1
  %140 = sext i8 %139 to i32
  %141 = call i32 (i8*, ...) @printf(i8* getelementptr inbounds ([3 x i8], [3 x i8]* @.str, i64 0, i64 0), i32 %140)
  br label %142

142:                                              ; preds = %135
  %143 = load i32, i32* %7, align 4
  %144 = add nsw i32 %143, 1
  store i32 %144, i32* %7, align 4
  br label %128

145:                                              ; preds = %128
  %146 = call i32 (i8*, ...) @printf(i8* getelementptr inbounds ([2 x i8], [2 x i8]* @.str.1, i64 0, i64 0))
  %147 = load i32, i32* %16, align 4
  %148 = sext i32 %147 to i64
  %149 = getelementptr inbounds [500 x i32], [500 x i32]* %8, i64 0, i64 %148
  %150 = load i32, i32* %149, align 4
  %151 = load i32, i32* %16, align 4
  %152 = sext i32 %151 to i64
  %153 = getelementptr inbounds [20 x i32], [20 x i32]* %13, i64 0, i64 %152
  %154 = load i32, i32* %153, align 4
  %155 = sub nsw i32 %150, %154
  store i32 %155, i32* %7, align 4
  br label %156

156:                                              ; preds = %170, %145
  %157 = load i32, i32* %7, align 4
  %158 = load i32, i32* %16, align 4
  %159 = sext i32 %158 to i64
  %160 = getelementptr inbounds [500 x i32], [500 x i32]* %8, i64 0, i64 %159
  %161 = load i32, i32* %160, align 4
  %162 = icmp slt i32 %157, %161
  br i1 %162, label %163, label %173

163:                                              ; preds = %156
  %164 = load i32, i32* %7, align 4
  %165 = sext i32 %164 to i64
  %166 = getelementptr inbounds [500 x i8], [500 x i8]* %6, i64 0, i64 %165
  %167 = load i8, i8* %166, align 1
  %168 = sext i8 %167 to i32
  %169 = call i32 (i8*, ...) @printf(i8* getelementptr inbounds ([3 x i8], [3 x i8]* @.str, i64 0, i64 0), i32 %168)
  br label %170

170:                                              ; preds = %163
  %171 = load i32, i32* %7, align 4
  %172 = add nsw i32 %171, 1
  store i32 %172, i32* %7, align 4
  br label %156

173:                                              ; preds = %156
  %174 = call i32 (i8*, ...) @printf(i8* getelementptr inbounds ([2 x i8], [2 x i8]* @.str.1, i64 0, i64 0))
  ret i32 0
}